target datalayout = "e-m:e-p270:32:32-p271:32:32-p272:64:64-i64:64-i128:128-f80:128-n8:16:32:64-S128"
target triple = "x86_64-pc-linux-gnu"

%struct.GISTSTATE = type { ptr, ptr, ptr, ptr, ptr, [32 x %struct.FmgrInfo], [32 x %struct.FmgrInfo], [32 x %struct.FmgrInfo], [32 x %struct.FmgrInfo], [32 x %struct.FmgrInfo], [32 x %struct.FmgrInfo], [32 x %struct.FmgrInfo], [32 x %struct.FmgrInfo], [32 x %struct.FmgrInfo], [32 x i32] }
%struct.FmgrInfo = type { ptr, i32, i16, i8, i8, i8, ptr, ptr, ptr }
%struct.GistEntryVector = type { i32, [0 x %struct.GISTENTRY] }
%struct.GISTENTRY = type { i64, ptr, ptr, i16, i8 }
%union.anon = type { %struct.GistEntryVector, [64 x i8] }

; Function Attrs: inlinehint nounwind uwtable
define internal i64 @PointerGetDatum(ptr noundef %0) #2 {
  %2 = alloca ptr, align 8
  store ptr %0, ptr %2, align 8
  %3 = load ptr, ptr %2, align 8
  %4 = ptrtoint ptr %3 to i64
  ret i64 %4
}

; Function Attrs: nounwind uwtable
define dso_local void @gistMakeUnionKey(ptr noundef %0, i32 noundef %1, ptr noundef %2, i1 noundef zeroext %3, ptr noundef %4, i1 noundef zeroext %5, ptr noundef %6, ptr noundef %7) #0 {
  %9 = alloca ptr, align 8
  %10 = alloca i32, align 4
  %11 = alloca ptr, align 8
  %12 = alloca i8, align 1
  %13 = alloca ptr, align 8
  %14 = alloca i8, align 1
  %15 = alloca ptr, align 8
  %16 = alloca ptr, align 8
  %17 = alloca %union.anon, align 8
  %18 = alloca ptr, align 8
  %19 = alloca i32, align 4
  store ptr %0, ptr %9, align 8
  store i32 %1, ptr %10, align 4
  store ptr %2, ptr %11, align 8
  %20 = zext i1 %3 to i8
  store i8 %20, ptr %12, align 1
  store ptr %4, ptr %13, align 8
  %21 = zext i1 %5 to i8
  store i8 %21, ptr %14, align 1
  store ptr %6, ptr %15, align 8
  store ptr %7, ptr %16, align 8
  call void @llvm.lifetime.start.p0(i64 72, ptr %17) #8
  call void @llvm.lifetime.start.p0(i64 8, ptr %18) #8
  store ptr %17, ptr %18, align 8
  call void @llvm.lifetime.start.p0(i64 4, ptr %19) #8
  %22 = load ptr, ptr %18, align 8
  %23 = getelementptr inbounds nuw %struct.GistEntryVector, ptr %22, i32 0, i32 0
  store i32 2, ptr %23, align 8
  %24 = load i8, ptr %12, align 1, !range !11, !noundef !12
  %25 = trunc i8 %24 to i1
  br i1 %25, label %26, label %32

26:                                               ; preds = %8
  %27 = load i8, ptr %14, align 1, !range !11, !noundef !12
  %28 = trunc i8 %27 to i1
  br i1 %28, label %29, label %32

29:                                               ; preds = %26
  %30 = load ptr, ptr %16, align 8
  store i8 1, ptr %30, align 1
  %31 = load ptr, ptr %15, align 8
  store i64 0, ptr %31, align 8
  br label %93

32:                                               ; preds = %26, %8
  %33 = load i8, ptr %12, align 1, !range !11, !noundef !12
  %34 = trunc i8 %33 to i1
  %35 = zext i1 %34 to i32
  %36 = icmp eq i32 %35, 0
  br i1 %36, label %37, label %51

37:                                               ; preds = %32
  %38 = load i8, ptr %14, align 1, !range !11, !noundef !12
  %39 = trunc i8 %38 to i1
  %40 = zext i1 %39 to i32
  %41 = icmp eq i32 %40, 0
  br i1 %41, label %42, label %51

42:                                               ; preds = %37
  %43 = load ptr, ptr %18, align 8
  %44 = getelementptr inbounds nuw %struct.GistEntryVector, ptr %43, i32 0, i32 1
  %45 = getelementptr inbounds [0 x %struct.GISTENTRY], ptr %44, i64 0, i64 0
  %46 = load ptr, ptr %11, align 8
  call void @llvm.memcpy.p0.p0.i64(ptr align 8 %45, ptr align 8 %46, i64 32, i1 false)
  %47 = load ptr, ptr %18, align 8
  %48 = getelementptr inbounds nuw %struct.GistEntryVector, ptr %47, i32 0, i32 1
  %49 = getelementptr inbounds [0 x %struct.GISTENTRY], ptr %48, i64 0, i64 1
  %50 = load ptr, ptr %13, align 8
  call void @llvm.memcpy.p0.p0.i64(ptr align 8 %49, ptr align 8 %50, i64 32, i1 false)
  br label %75

51:                                               ; preds = %37, %32
  %52 = load i8, ptr %12, align 1, !range !11, !noundef !12
  %53 = trunc i8 %52 to i1
  %54 = zext i1 %53 to i32
  %55 = icmp eq i32 %54, 0
  br i1 %55, label %56, label %65

56:                                               ; preds = %51
  %57 = load ptr, ptr %18, align 8
  %58 = getelementptr inbounds nuw %struct.GistEntryVector, ptr %57, i32 0, i32 1
  %59 = getelementptr inbounds [0 x %struct.GISTENTRY], ptr %58, i64 0, i64 0
  %60 = load ptr, ptr %11, align 8
  call void @llvm.memcpy.p0.p0.i64(ptr align 8 %59, ptr align 8 %60, i64 32, i1 false)
  %61 = load ptr, ptr %18, align 8
  %62 = getelementptr inbounds nuw %struct.GistEntryVector, ptr %61, i32 0, i32 1
  %63 = getelementptr inbounds [0 x %struct.GISTENTRY], ptr %62, i64 0, i64 1
  %64 = load ptr, ptr %11, align 8
  call void @llvm.memcpy.p0.p0.i64(ptr align 8 %63, ptr align 8 %64, i64 32, i1 false)
  br label %74

65:                                               ; preds = %51
  %66 = load ptr, ptr %18, align 8
  %67 = getelementptr inbounds nuw %struct.GistEntryVector, ptr %66, i32 0, i32 1
  %68 = getelementptr inbounds [0 x %struct.GISTENTRY], ptr %67, i64 0, i64 0
  %69 = load ptr, ptr %13, align 8
  call void @llvm.memcpy.p0.p0.i64(ptr align 8 %68, ptr align 8 %69, i64 32, i1 false)
  %70 = load ptr, ptr %18, align 8
  %71 = getelementptr inbounds nuw %struct.GistEntryVector, ptr %70, i32 0, i32 1
  %72 = getelementptr inbounds [0 x %struct.GISTENTRY], ptr %71, i64 0, i64 1
  %73 = load ptr, ptr %13, align 8
  call void @llvm.memcpy.p0.p0.i64(ptr align 8 %72, ptr align 8 %73, i64 32, i1 false)
  br label %74

74:                                               ; preds = %65, %56
  br label %75

75:                                               ; preds = %74, %42
  %76 = load ptr, ptr %16, align 8
  store i8 0, ptr %76, align 1
  %77 = load ptr, ptr %9, align 8
  %78 = getelementptr inbounds nuw %struct.GISTSTATE, ptr %77, i32 0, i32 6
  %79 = load i32, ptr %10, align 4
  %80 = sext i32 %79 to i64
  %81 = getelementptr inbounds [32 x %struct.FmgrInfo], ptr %78, i64 0, i64 %80
  %82 = load ptr, ptr %9, align 8
  %83 = getelementptr inbounds nuw %struct.GISTSTATE, ptr %82, i32 0, i32 14
  %84 = load i32, ptr %10, align 4
  %85 = sext i32 %84 to i64
  %86 = getelementptr inbounds [32 x i32], ptr %83, i64 0, i64 %85
  %87 = load i32, ptr %86, align 4
  %88 = load ptr, ptr %18, align 8
  %89 = call i64 @PointerGetDatum(ptr noundef %88)
  %90 = call i64 @PointerGetDatum(ptr noundef %19)
  %91 = call i64 @FunctionCall2Coll(ptr noundef %81, i32 noundef %87, i64 noundef %89, i64 noundef %90)
  %92 = load ptr, ptr %15, align 8
  store i64 %91, ptr %92, align 8
  br label %93

93:                                               ; preds = %75, %29
  call void @llvm.lifetime.end.p0(i64 4, ptr %19) #8
  call void @llvm.lifetime.end.p0(i64 8, ptr %18) #8
  call void @llvm.lifetime.end.p0(i64 72, ptr %17) #8
  ret void
}