; Function Attrs: nounwind uwtable
define dso_local void @gistMakeUnionKey(ptr noundef %0, i32 noundef %1, ptr noundef readonly captures(none) %2, i1 noundef zeroext %3, ptr noundef readonly captures(none) %4, i1 noundef zeroext %5, ptr noundef writeonly captures(none) initializes((0, 8)) %6, ptr noundef writeonly captures(none) initializes((0, 1)) %7) local_unnamed_addr #0 {
  %9 = alloca %union.anon, align 8
  %10 = alloca i32, align 4
  call void @llvm.lifetime.start.p0(i64 72, ptr nonnull %9) #11
  call void @llvm.lifetime.start.p0(i64 4, ptr nonnull %10) #11
  store i32 2, ptr %9, align 8
  %brmerge.demorgan = and i1 %3, %5
  br i1 %brmerge.demorgan, label %11, label %12

11:                                               ; preds = %8
  store i8 1, ptr %7, align 1
  br label %30

12:                                               ; preds = %8
  %brmerge27 = or i1 %3, %5
  %13 = getelementptr inbounds nuw i8, ptr %9, i64 8
  br i1 %brmerge27, label %16, label %14

14:                                               ; preds = %12
  call void @llvm.memcpy.p0.p0.i64(ptr noundef nonnull align 8 dereferenceable(32) %13, ptr noundef nonnull align 8 dereferenceable(32) %2, i64 32, i1 false)
  %15 = getelementptr inbounds nuw i8, ptr %9, i64 40
  call void @llvm.memcpy.p0.p0.i64(ptr noundef nonnull align 8 dereferenceable(32) %15, ptr noundef nonnull align 8 dereferenceable(32) %4, i64 32, i1 false)
  br label %20

16:                                               ; preds = %12
  %17 = getelementptr inbounds nuw i8, ptr %9, i64 40
  br i1 %3, label %19, label %18

18:                                               ; preds = %16
  call void @llvm.memcpy.p0.p0.i64(ptr noundef nonnull align 8 dereferenceable(32) %13, ptr noundef nonnull align 8 dereferenceable(32) %2, i64 32, i1 false)
  call void @llvm.memcpy.p0.p0.i64(ptr noundef nonnull align 8 dereferenceable(32) %17, ptr noundef nonnull align 8 dereferenceable(32) %2, i64 32, i1 false)
  br label %20

19:                                               ; preds = %16
  call void @llvm.memcpy.p0.p0.i64(ptr noundef nonnull align 8 dereferenceable(32) %13, ptr noundef nonnull align 8 dereferenceable(32) %4, i64 32, i1 false)
  call void @llvm.memcpy.p0.p0.i64(ptr noundef nonnull align 8 dereferenceable(32) %17, ptr noundef nonnull align 8 dereferenceable(32) %4, i64 32, i1 false)
  br label %20

20:                                               ; preds = %18, %19, %14
  store i8 0, ptr %7, align 1
  %21 = getelementptr inbounds nuw i8, ptr %0, i64 1576
  %22 = sext i32 %1 to i64
  %23 = getelementptr inbounds [32 x %struct.FmgrInfo], ptr %21, i64 0, i64 %22
  %24 = getelementptr inbounds nuw i8, ptr %0, i64 13864
  %25 = getelementptr inbounds [32 x i32], ptr %24, i64 0, i64 %22
  %26 = load i32, ptr %25, align 4
  %27 = ptrtoint ptr %9 to i64
  %28 = ptrtoint ptr %10 to i64
  %29 = call i64 @FunctionCall2Coll(ptr noundef nonnull %23, i32 noundef %26, i64 noundef %27, i64 noundef %28) #11
  br label %30

30:                                               ; preds = %20, %11
  %storemerge = phi i64 [ %29, %20 ], [ 0, %11 ]
  store i64 %storemerge, ptr %6, align 8
  call void @llvm.lifetime.end.p0(i64 4, ptr nonnull %10) #11
  call void @llvm.lifetime.end.p0(i64 72, ptr nonnull %9) #11
  ret void
}